target datalayout = "e-m:e-p270:32:32-p271:32:32-p272:64:64-i64:64-i128:128-f80:128-n8:16:32:64-S128"
target triple = "x86_64-pc-linux-gnu"

%struct.ps_prochandle = type { ptr, i32, i32, ptr, ptr, i32, ptr, ptr }
%struct.lib_info = type { [4352 x i8], i64, i64, i64, i64, %struct.eh_frame_info, ptr, i32, ptr }
%struct.eh_frame_info = type { i64, i64, ptr, i32 }

; Function Attrs: nounwind uwtable
define hidden void @get_lib_addr_range(ptr noundef %0, i32 noundef %1, ptr noundef %2, ptr noundef %3) #0 {
  %5 = alloca ptr, align 8
  %6 = alloca i32, align 4
  %7 = alloca ptr, align 8
  %8 = alloca ptr, align 8
  %9 = alloca i32, align 4
  %10 = alloca ptr, align 8
  store ptr %0, ptr %5, align 8
  store i32 %1, ptr %6, align 4
  store ptr %2, ptr %7, align 8
  store ptr %3, ptr %8, align 8
  store i32 0, ptr %9, align 4
  %11 = load ptr, ptr %5, align 8
  %12 = getelementptr inbounds %struct.ps_prochandle, ptr %11, i32 0, i32 3
  %13 = load ptr, ptr %12, align 8
  store ptr %13, ptr %10, align 8
  br label %14

14:                                               ; preds = %34, %4
  %15 = load ptr, ptr %10, align 8
  %16 = icmp ne ptr %15, null
  br i1 %16, label %17, label %40

17:                                               ; preds = %14
  %18 = load i32, ptr %9, align 4
  %19 = load i32, ptr %6, align 4
  %20 = icmp eq i32 %18, %19
  br i1 %20, label %21, label %34

21:                                               ; preds = %17
  %22 = load ptr, ptr %10, align 8
  %23 = getelementptr inbounds %struct.lib_info, ptr %22, i32 0, i32 1
  %24 = load i64, ptr %23, align 8
  %25 = load ptr, ptr %7, align 8
  store i64 %24, ptr %25, align 8
  %26 = load ptr, ptr %10, align 8
  %27 = getelementptr inbounds %struct.lib_info, ptr %26, i32 0, i32 2
  %28 = load i64, ptr %27, align 8
  %29 = load ptr, ptr %10, align 8
  %30 = getelementptr inbounds %struct.lib_info, ptr %29, i32 0, i32 1
  %31 = load i64, ptr %30, align 8
  %32 = sub i64 %28, %31
  %33 = load ptr, ptr %8, align 8
  store i64 %32, ptr %33, align 8
  br label %40

34:                                               ; preds = %17
  %35 = load i32, ptr %9, align 4
  %36 = add nsw i32 %35, 1
  store i32 %36, ptr %9, align 4
  %37 = load ptr, ptr %10, align 8
  %38 = getelementptr inbounds %struct.lib_info, ptr %37, i32 0, i32 8
  %39 = load ptr, ptr %38, align 8
  store ptr %39, ptr %10, align 8
  br label %14, !llvm.loop !17

40:                                               ; preds = %21, %14
  ret void
}