; Function Attrs: nofree norecurse nosync nounwind memory(read, argmem: readwrite, inaccessiblemem: none) uwtable
define hidden void @get_lib_addr_range(ptr nocapture noundef readonly %0, i32 noundef %1, ptr nocapture noundef writeonly %2, ptr nocapture noundef writeonly %3) local_unnamed_addr #16 {
  %5 = getelementptr inbounds i8, ptr %0, i64 16
  %.012 = load ptr, ptr %5, align 8
  %.not13 = icmp eq ptr %.012, null
  br i1 %.not13, label %.loopexit, label %.lr.ph

.lr.ph:                                           ; preds = %4, %13
  %.015 = phi ptr [ %.0, %13 ], [ %.012, %4 ]
  %.01014 = phi i32 [ %14, %13 ], [ 0, %4 ]
  %6 = icmp eq i32 %.01014, %1
  br i1 %6, label %7, label %13

7:                                                ; preds = %.lr.ph
  %8 = getelementptr inbounds i8, ptr %.015, i64 4352
  %9 = load i64, ptr %8, align 8
  store i64 %9, ptr %2, align 8
  %10 = getelementptr inbounds i8, ptr %.015, i64 4360
  %11 = load i64, ptr %10, align 8
  %12 = sub i64 %11, %9
  store i64 %12, ptr %3, align 8
  br label %.loopexit

13:                                               ; preds = %.lr.ph
  %14 = add nuw nsw i32 %.01014, 1
  %15 = getelementptr inbounds i8, ptr %.015, i64 4432
  %.0 = load ptr, ptr %15, align 8
  %.not = icmp eq ptr %.0, null
  br i1 %.not, label %.loopexit, label %.lr.ph, !llvm.loop !17

.loopexit:                                        ; preds = %13, %4, %7
  ret void
}